; Function Attrs: mustprogress nounwind uwtable
define hidden void @_ZN6hermes3sem17SemanticValidator5visitEPNS_6ESTree18ForOfStatementNodeE(ptr noundef nonnull align 8 dereferenceable(168) %this, ptr noundef initializes((48, 52)) %forOf) local_unnamed_addr #0 align 2 {
entry:
  %ref.tmp = alloca %"class.llvh::Twine", align 8
  %compile_ = getelementptr inbounds nuw i8, ptr %this, i64 161
  %0 = load i8, ptr %compile_, align 1
  %tobool = trunc i8 %0 to i1
  br i1 %tobool, label %land.lhs.true, label %if.end

land.lhs.true:                                    ; preds = %entry
  %_await = getelementptr inbounds nuw i8, ptr %forOf, i64 80
  %1 = load i8, ptr %_await, align 8
  %tobool2 = trunc i8 %1 to i1
  br i1 %tobool2, label %if.then, label %if.end

if.then:                                          ; preds = %land.lhs.true
  %sm_ = getelementptr inbounds nuw i8, ptr %this, i64 8
  %2 = load ptr, ptr %sm_, align 8
  %sourceRange_.i = getelementptr inbounds nuw i8, ptr %forOf, i64 24
  %retval.sroa.0.0.copyload.i = load ptr, ptr %sourceRange_.i, align 8
  %retval.sroa.2.0.sourceRange_.sroa_idx.i = getelementptr inbounds nuw i8, ptr %forOf, i64 32
  %retval.sroa.2.0.copyload.i = load ptr, ptr %retval.sroa.2.0.sourceRange_.sroa_idx.i, align 8
  %LHSKind.i = getelementptr inbounds nuw i8, ptr %ref.tmp, i64 16
  %RHSKind.i = getelementptr inbounds nuw i8, ptr %ref.tmp, i64 17
  store i8 1, ptr %RHSKind.i, align 1
  store ptr @.str.23, ptr %ref.tmp, align 8
  store i8 3, ptr %LHSKind.i, align 8
  call void @_ZN6hermes18SourceErrorManager7messageENS0_8DiagKindEN4llvh7SMRangeERKNS2_5TwineENS_9SubsystemE(ptr noundef nonnull align 8 dereferenceable(464) %2, i32 noundef 0, ptr %retval.sroa.0.0.copyload.i, ptr %retval.sroa.2.0.copyload.i, ptr noundef nonnull align 8 dereferenceable(18) %ref.tmp, i32 noundef 0) #21
  br label %if.end

if.end:                                           ; preds = %if.then, %land.lhs.true, %entry
  %_left = getelementptr inbounds nuw i8, ptr %forOf, i64 56
  %3 = load ptr, ptr %_left, align 8
  call void @_ZN6hermes3sem17SemanticValidator12visitForInOfEPNS_6ESTree17LoopStatementNodeEPNS2_4NodeE(ptr noundef nonnull align 8 dereferenceable(168) %this, ptr noundef %forOf, ptr noundef %3)
  ret void
}